target datalayout = "e-m:e-p270:32:32-p271:32:32-p272:64:64-i64:64-i128:128-f80:128-n8:16:32:64-S128"
target triple = "x86_64-pc-linux-gnu"

@.str.1 = private unnamed_addr constant [10 x i8] c"igmp.type\00", align 1
@proto_igmp = internal global i32 0, align 4
@igmp_handle = internal global ptr null, align 8
@igmpv0_handle = internal global ptr null, align 8
@igmpv1_handle = internal global ptr null, align 8
@igmpv2_handle = internal global ptr null, align 8
@.str.130 = private unnamed_addr constant [9 x i8] c"ip.proto\00", align 1
@.str.131 = private unnamed_addr constant [5 x i8] c"0-15\00", align 1

; Function Attrs: null_pointer_is_valid sspstrong uwtable
define hidden void @proto_reg_handoff_igmp() #0 {
  %1 = alloca ptr, align 8
  %2 = alloca ptr, align 8
  %3 = alloca ptr, align 8
  %4 = alloca ptr, align 8
  call void @llvm.lifetime.start.p0(i64 8, ptr %1) #4
  call void @llvm.lifetime.start.p0(i64 8, ptr %2) #4
  call void @llvm.lifetime.start.p0(i64 8, ptr %3) #4
  call void @llvm.lifetime.start.p0(i64 8, ptr %4) #4
  store ptr null, ptr %4, align 8
  %5 = load ptr, ptr @igmp_handle, align 8
  call void @dissector_add_uint(ptr noundef @.str.130, i32 noundef 2, ptr noundef %5)
  %6 = call i32 @range_convert_str(ptr noundef null, ptr noundef %4, ptr noundef @.str.131, i32 noundef 15)
  %7 = load ptr, ptr %4, align 8
  %8 = load ptr, ptr @igmpv0_handle, align 8
  call void @dissector_add_uint_range(ptr noundef @.str.1, ptr noundef %7, ptr noundef %8)
  %9 = load ptr, ptr %4, align 8
  call void @wmem_free(ptr noundef null, ptr noundef %9)
  %10 = load ptr, ptr @igmpv1_handle, align 8
  call void @dissector_add_uint(ptr noundef @.str.1, i32 noundef 18, ptr noundef %10)
  %11 = load ptr, ptr @igmpv2_handle, align 8
  call void @dissector_add_uint(ptr noundef @.str.1, i32 noundef 22, ptr noundef %11)
  %12 = load ptr, ptr @igmpv2_handle, align 8
  call void @dissector_add_uint(ptr noundef @.str.1, i32 noundef 23, ptr noundef %12)
  %13 = load i32, ptr @proto_igmp, align 4
  %14 = call ptr @create_dissector_handle(ptr noundef @dissect_igmp_mquery, i32 noundef %13)
  store ptr %14, ptr %1, align 8
  %15 = load ptr, ptr %1, align 8
  call void @dissector_add_uint(ptr noundef @.str.1, i32 noundef 17, ptr noundef %15)
  %16 = load i32, ptr @proto_igmp, align 4
  %17 = call ptr @create_dissector_handle(ptr noundef @dissect_igmp_v3_report, i32 noundef %16)
  store ptr %17, ptr %3, align 8
  %18 = load ptr, ptr %3, align 8
  call void @dissector_add_uint(ptr noundef @.str.1, i32 noundef 34, ptr noundef %18)
  %19 = load i32, ptr @proto_igmp, align 4
  %20 = call ptr @create_dissector_handle(ptr noundef @dissect_igmp_mtrace, i32 noundef %19)
  store ptr %20, ptr %2, align 8
  %21 = load ptr, ptr %2, align 8
  call void @dissector_add_uint(ptr noundef @.str.1, i32 noundef 30, ptr noundef %21)
  %22 = load ptr, ptr %2, align 8
  call void @dissector_add_uint(ptr noundef @.str.1, i32 noundef 31, ptr noundef %22)
  call void @llvm.lifetime.end.p0(i64 8, ptr %4) #4
  call void @llvm.lifetime.end.p0(i64 8, ptr %3) #4
  call void @llvm.lifetime.end.p0(i64 8, ptr %2) #4
  call void @llvm.lifetime.end.p0(i64 8, ptr %1) #4
  ret void
}