; Function Attrs: null_pointer_is_valid sspstrong uwtable
define hidden void @proto_reg_handoff_igmp() local_unnamed_addr #0 {
  %1 = alloca ptr, align 8
  call void @llvm.lifetime.start.p0(i64 8, ptr nonnull %1) #4
  store ptr null, ptr %1, align 8
  %2 = load ptr, ptr @igmp_handle, align 8
  tail call void @dissector_add_uint(ptr noundef nonnull @.str.130, i32 noundef 2, ptr noundef %2)
  %3 = call i32 @range_convert_str(ptr noundef null, ptr noundef nonnull %1, ptr noundef nonnull @.str.131, i32 noundef 15)
  %4 = load ptr, ptr %1, align 8
  %5 = load ptr, ptr @igmpv0_handle, align 8
  call void @dissector_add_uint_range(ptr noundef nonnull @.str.1, ptr noundef %4, ptr noundef %5)
  %6 = load ptr, ptr %1, align 8
  call void @wmem_free(ptr noundef null, ptr noundef %6)
  %7 = load ptr, ptr @igmpv1_handle, align 8
  call void @dissector_add_uint(ptr noundef nonnull @.str.1, i32 noundef 18, ptr noundef %7)
  %8 = load ptr, ptr @igmpv2_handle, align 8
  call void @dissector_add_uint(ptr noundef nonnull @.str.1, i32 noundef 22, ptr noundef %8)
  %9 = load ptr, ptr @igmpv2_handle, align 8
  call void @dissector_add_uint(ptr noundef nonnull @.str.1, i32 noundef 23, ptr noundef %9)
  %10 = load i32, ptr @proto_igmp, align 4
  %11 = call ptr @create_dissector_handle(ptr noundef nonnull @dissect_igmp_mquery, i32 noundef %10)
  call void @dissector_add_uint(ptr noundef nonnull @.str.1, i32 noundef 17, ptr noundef %11)
  %12 = load i32, ptr @proto_igmp, align 4
  %13 = call ptr @create_dissector_handle(ptr noundef nonnull @dissect_igmp_v3_report, i32 noundef %12)
  call void @dissector_add_uint(ptr noundef nonnull @.str.1, i32 noundef 34, ptr noundef %13)
  %14 = load i32, ptr @proto_igmp, align 4
  %15 = call ptr @create_dissector_handle(ptr noundef nonnull @dissect_igmp_mtrace, i32 noundef %14)
  call void @dissector_add_uint(ptr noundef nonnull @.str.1, i32 noundef 30, ptr noundef %15)
  call void @dissector_add_uint(ptr noundef nonnull @.str.1, i32 noundef 31, ptr noundef %15)
  call void @llvm.lifetime.end.p0(i64 8, ptr nonnull %1) #4
  ret void
}